target datalayout = "e-m:e-p270:32:32-p271:32:32-p272:64:64-i64:64-i128:128-f80:128-n8:16:32:64-S128"
target triple = "x86_64-pc-linux-gnu"

@__const._blend_Lab_scale.scale = private unnamed_addr constant [4 x float] [float 0x3F847AE140000000, float 7.812500e-03, float 7.812500e-03, float 1.000000e+00], align 16
@__const._blend_Lab_rescale.scale = private unnamed_addr constant [4 x float] [float 1.000000e+02, float 1.280000e+02, float 1.280000e+02, float 1.000000e+00], align 16

; Function Attrs: inlinehint nounwind uwtable
define internal void @_blend_Lab_rescale(ptr noundef %0, ptr noundef %1) #2 {
  %3 = alloca ptr, align 8
  %4 = alloca ptr, align 8
  %5 = alloca [4 x float], align 16
  %6 = alloca i64, align 8
  store ptr %0, ptr %3, align 8, !tbaa !11
  store ptr %1, ptr %4, align 8, !tbaa !11
  call void @llvm.lifetime.start.p0(i64 16, ptr %5) #8
  call void @llvm.memcpy.p0.p0.i64(ptr align 16 %5, ptr align 16 @__const._blend_Lab_rescale.scale, i64 16, i1 false)
  call void @llvm.lifetime.start.p0(i64 8, ptr %6) #8
  store i64 0, ptr %6, align 8, !tbaa !43
  br label %7

7:                                                ; preds = %23, %2
  %8 = load i64, ptr %6, align 8, !tbaa !43
  %9 = icmp ult i64 %8, 4
  br i1 %9, label %11, label %10

10:                                               ; preds = %7
  call void @llvm.lifetime.end.p0(i64 8, ptr %6) #8
  br label %26

11:                                               ; preds = %7
  %12 = load ptr, ptr %3, align 8, !tbaa !11
  %13 = load i64, ptr %6, align 8, !tbaa !43
  %14 = getelementptr inbounds nuw float, ptr %12, i64 %13
  %15 = load float, ptr %14, align 4, !tbaa !45
  %16 = load i64, ptr %6, align 8, !tbaa !43
  %17 = getelementptr inbounds nuw [4 x float], ptr %5, i64 0, i64 %16
  %18 = load float, ptr %17, align 4, !tbaa !45
  %19 = fmul reassoc nsz arcp contract afn float %15, %18
  %20 = load ptr, ptr %4, align 8, !tbaa !11
  %21 = load i64, ptr %6, align 8, !tbaa !43
  %22 = getelementptr inbounds nuw float, ptr %20, i64 %21
  store float %19, ptr %22, align 4, !tbaa !45
  br label %23

23:                                               ; preds = %11
  %24 = load i64, ptr %6, align 8, !tbaa !43
  %25 = add i64 %24, 1
  store i64 %25, ptr %6, align 8, !tbaa !43
  br label %7

26:                                               ; preds = %10
  call void @llvm.lifetime.end.p0(i64 16, ptr %5) #8
  ret void
}

; Function Attrs: inlinehint nounwind uwtable
define internal float @_CLAMP(float noundef %0, float noundef %1, float noundef %2) #2 {
  %4 = alloca float, align 4
  %5 = alloca float, align 4
  %6 = alloca float, align 4
  store float %0, ptr %4, align 4, !tbaa !45
  store float %1, ptr %5, align 4, !tbaa !45
  store float %2, ptr %6, align 4, !tbaa !45
  %7 = load float, ptr %4, align 4, !tbaa !45
  %8 = load float, ptr %5, align 4, !tbaa !45
  %9 = call reassoc nsz arcp contract afn float @llvm.maxnum.f32(float %7, float %8)
  %10 = load float, ptr %6, align 4, !tbaa !45
  %11 = call reassoc nsz arcp contract afn float @llvm.minnum.f32(float %9, float %10)
  ret float %11
}

; Function Attrs: inlinehint nounwind uwtable
define internal void @_blend_Lab_scale(ptr noundef %0, ptr noundef %1) #2 {
  %3 = alloca ptr, align 8
  %4 = alloca ptr, align 8
  %5 = alloca [4 x float], align 16
  %6 = alloca i64, align 8
  store ptr %0, ptr %3, align 8, !tbaa !11
  store ptr %1, ptr %4, align 8, !tbaa !11
  call void @llvm.lifetime.start.p0(i64 16, ptr %5) #8
  call void @llvm.memcpy.p0.p0.i64(ptr align 16 %5, ptr align 16 @__const._blend_Lab_scale.scale, i64 16, i1 false)
  call void @llvm.lifetime.start.p0(i64 8, ptr %6) #8
  store i64 0, ptr %6, align 8, !tbaa !43
  br label %7

7:                                                ; preds = %23, %2
  %8 = load i64, ptr %6, align 8, !tbaa !43
  %9 = icmp ult i64 %8, 4
  br i1 %9, label %11, label %10

10:                                               ; preds = %7
  call void @llvm.lifetime.end.p0(i64 8, ptr %6) #8
  br label %26

11:                                               ; preds = %7
  %12 = load ptr, ptr %3, align 8, !tbaa !11
  %13 = load i64, ptr %6, align 8, !tbaa !43
  %14 = getelementptr inbounds nuw float, ptr %12, i64 %13
  %15 = load float, ptr %14, align 4, !tbaa !45
  %16 = load i64, ptr %6, align 8, !tbaa !43
  %17 = getelementptr inbounds nuw [4 x float], ptr %5, i64 0, i64 %16
  %18 = load float, ptr %17, align 4, !tbaa !45
  %19 = fmul reassoc nsz arcp contract afn float %15, %18
  %20 = load ptr, ptr %4, align 8, !tbaa !11
  %21 = load i64, ptr %6, align 8, !tbaa !43
  %22 = getelementptr inbounds nuw float, ptr %20, i64 %21
  store float %19, ptr %22, align 4, !tbaa !45
  br label %23

23:                                               ; preds = %11
  %24 = load i64, ptr %6, align 8, !tbaa !43
  %25 = add i64 %24, 1
  store i64 %25, ptr %6, align 8, !tbaa !43
  br label %7

26:                                               ; preds = %10
  call void @llvm.lifetime.end.p0(i64 16, ptr %5) #8
  ret void
}

; Function Attrs: nounwind uwtable
define internal void @_blend_difference(ptr noundef %0, ptr noundef %1, ptr noundef %2, ptr noalias noundef %3, i64 noundef %4, ptr noundef %5, ptr noundef %6) #0 {
  %8 = alloca ptr, align 8
  %9 = alloca ptr, align 8
  %10 = alloca ptr, align 8
  %11 = alloca ptr, align 8
  %12 = alloca i64, align 8
  %13 = alloca ptr, align 8
  %14 = alloca ptr, align 8
  %15 = alloca i64, align 8
  %16 = alloca i64, align 8
  %17 = alloca i32, align 4
  %18 = alloca float, align 4
  %19 = alloca [4 x float], align 16
  %20 = alloca [4 x float], align 16
  %21 = alloca float, align 4
  %22 = alloca i64, align 8
  %23 = alloca float, align 4
  %24 = alloca float, align 4
  %25 = alloca float, align 4
  store ptr %0, ptr %8, align 8, !tbaa !11
  store ptr %1, ptr %9, align 8, !tbaa !11
  store ptr %2, ptr %10, align 8, !tbaa !11
  store ptr %3, ptr %11, align 8, !tbaa !11
  store i64 %4, ptr %12, align 8, !tbaa !43
  store ptr %5, ptr %13, align 8, !tbaa !11
  store ptr %6, ptr %14, align 8, !tbaa !11
  call void @llvm.lifetime.start.p0(i64 8, ptr %15) #8
  store i64 0, ptr %15, align 8, !tbaa !43
  call void @llvm.lifetime.start.p0(i64 8, ptr %16) #8
  store i64 0, ptr %16, align 8, !tbaa !43
  br label %26

26:                                               ; preds = %115, %7
  %27 = load i64, ptr %15, align 8, !tbaa !43
  %28 = load i64, ptr %12, align 8, !tbaa !43
  %29 = icmp ult i64 %27, %28
  br i1 %29, label %31, label %30

30:                                               ; preds = %26
  store i32 2, ptr %17, align 4
  call void @llvm.lifetime.end.p0(i64 8, ptr %16) #8
  call void @llvm.lifetime.end.p0(i64 8, ptr %15) #8
  br label %120

31:                                               ; preds = %26
  call void @llvm.lifetime.start.p0(i64 4, ptr %18) #8
  %32 = load ptr, ptr %11, align 8, !tbaa !11
  %33 = load i64, ptr %15, align 8, !tbaa !43
  %34 = getelementptr inbounds nuw float, ptr %32, i64 %33
  %35 = load float, ptr %34, align 4, !tbaa !45
  store float %35, ptr %18, align 4, !tbaa !45
  call void @llvm.lifetime.start.p0(i64 16, ptr %19) #8
  call void @llvm.lifetime.start.p0(i64 16, ptr %20) #8
  %36 = load ptr, ptr %8, align 8, !tbaa !11
  %37 = load i64, ptr %16, align 8, !tbaa !43
  %38 = getelementptr inbounds nuw float, ptr %36, i64 %37
  %39 = getelementptr inbounds [4 x float], ptr %19, i64 0, i64 0
  call void @_blend_Lab_scale(ptr noundef %38, ptr noundef %39)
  %40 = load ptr, ptr %9, align 8, !tbaa !11
  %41 = load i64, ptr %16, align 8, !tbaa !43
  %42 = getelementptr inbounds nuw float, ptr %40, i64 %41
  %43 = getelementptr inbounds [4 x float], ptr %20, i64 0, i64 0
  call void @_blend_Lab_scale(ptr noundef %42, ptr noundef %43)
  call void @llvm.lifetime.start.p0(i64 4, ptr %21) #8
  store float 0.000000e+00, ptr %21, align 4, !tbaa !45
  call void @llvm.lifetime.start.p0(i64 8, ptr %22) #8
  store i64 0, ptr %22, align 8, !tbaa !43
  br label %44

44:                                               ; preds = %102, %31
  %45 = load i64, ptr %22, align 8, !tbaa !43
  %46 = icmp ult i64 %45, 3
  br i1 %46, label %48, label %47

47:                                               ; preds = %44
  store i32 5, ptr %17, align 4
  call void @llvm.lifetime.end.p0(i64 8, ptr %22) #8
  br label %105

48:                                               ; preds = %44
  call void @llvm.lifetime.start.p0(i64 4, ptr %23) #8
  %49 = load ptr, ptr %14, align 8, !tbaa !11
  %50 = load i64, ptr %22, align 8, !tbaa !43
  %51 = getelementptr inbounds nuw float, ptr %49, i64 %50
  %52 = load float, ptr %51, align 4, !tbaa !45
  %53 = load ptr, ptr %13, align 8, !tbaa !11
  %54 = load i64, ptr %22, align 8, !tbaa !43
  %55 = getelementptr inbounds nuw float, ptr %53, i64 %54
  %56 = load float, ptr %55, align 4, !tbaa !45
  %57 = call reassoc nsz arcp contract afn float @llvm.fabs.f32(float %56)
  %58 = fadd reassoc nsz arcp contract afn float %52, %57
  store float %58, ptr %23, align 4, !tbaa !45
  call void @llvm.lifetime.start.p0(i64 4, ptr %24) #8
  %59 = load i64, ptr %22, align 8, !tbaa !43
  %60 = getelementptr inbounds nuw [4 x float], ptr %19, i64 0, i64 %59
  %61 = load float, ptr %60, align 4, !tbaa !45
  %62 = load ptr, ptr %13, align 8, !tbaa !11
  %63 = load i64, ptr %22, align 8, !tbaa !43
  %64 = getelementptr inbounds nuw float, ptr %62, i64 %63
  %65 = load float, ptr %64, align 4, !tbaa !45
  %66 = call reassoc nsz arcp contract afn float @llvm.fabs.f32(float %65)
  %67 = fadd reassoc nsz arcp contract afn float %61, %66
  %68 = load float, ptr %23, align 4, !tbaa !45
  %69 = call reassoc nsz arcp contract afn float @_CLAMP(float noundef %67, float noundef 0.000000e+00, float noundef %68)
  store float %69, ptr %24, align 4, !tbaa !45
  call void @llvm.lifetime.start.p0(i64 4, ptr %25) #8
  %70 = load i64, ptr %22, align 8, !tbaa !43
  %71 = getelementptr inbounds nuw [4 x float], ptr %20, i64 0, i64 %70
  %72 = load float, ptr %71, align 4, !tbaa !45
  %73 = load ptr, ptr %13, align 8, !tbaa !11
  %74 = load i64, ptr %22, align 8, !tbaa !43
  %75 = getelementptr inbounds nuw float, ptr %73, i64 %74
  %76 = load float, ptr %75, align 4, !tbaa !45
  %77 = call reassoc nsz arcp contract afn float @llvm.fabs.f32(float %76)
  %78 = fadd reassoc nsz arcp contract afn float %72, %77
  %79 = load float, ptr %23, align 4, !tbaa !45
  %80 = call reassoc nsz arcp contract afn float @_CLAMP(float noundef %78, float noundef 0.000000e+00, float noundef %79)
  store float %80, ptr %25, align 4, !tbaa !45
  %81 = load float, ptr %24, align 4, !tbaa !45
  %82 = load float, ptr %18, align 4, !tbaa !45
  %83 = fsub reassoc nsz arcp contract afn float 1.000000e+00, %82
  %84 = fmul reassoc nsz arcp contract afn float %81, %83
  %85 = load float, ptr %24, align 4, !tbaa !45
  %86 = load float, ptr %25, align 4, !tbaa !45
  %87 = fsub reassoc nsz arcp contract afn float %85, %86
  %88 = call reassoc nsz arcp contract afn float @llvm.fabs.f32(float %87)
  %89 = load float, ptr %18, align 4, !tbaa !45
  %90 = fmul reassoc nsz arcp contract afn float %88, %89
  %91 = fadd reassoc nsz arcp contract afn float %84, %90
  %92 = load float, ptr %23, align 4, !tbaa !45
  %93 = call reassoc nsz arcp contract afn float @_CLAMP(float noundef %91, float noundef 0.000000e+00, float noundef %92)
  %94 = load ptr, ptr %13, align 8, !tbaa !11
  %95 = load i64, ptr %22, align 8, !tbaa !43
  %96 = getelementptr inbounds nuw float, ptr %94, i64 %95
  %97 = load float, ptr %96, align 4, !tbaa !45
  %98 = call reassoc nsz arcp contract afn float @llvm.fabs.f32(float %97)
  %99 = fsub reassoc nsz arcp contract afn float %93, %98
  %100 = load i64, ptr %22, align 8, !tbaa !43
  %101 = getelementptr inbounds nuw [4 x float], ptr %20, i64 0, i64 %100
  store float %99, ptr %101, align 4, !tbaa !45
  call void @llvm.lifetime.end.p0(i64 4, ptr %25) #8
  call void @llvm.lifetime.end.p0(i64 4, ptr %24) #8
  call void @llvm.lifetime.end.p0(i64 4, ptr %23) #8
  br label %102

102:                                              ; preds = %48
  %103 = load i64, ptr %22, align 8, !tbaa !43
  %104 = add i64 %103, 1
  store i64 %104, ptr %22, align 8, !tbaa !43
  br label %44

105:                                              ; preds = %47
  %106 = getelementptr inbounds [4 x float], ptr %20, i64 0, i64 0
  %107 = load ptr, ptr %10, align 8, !tbaa !11
  %108 = load i64, ptr %16, align 8, !tbaa !43
  %109 = getelementptr inbounds nuw float, ptr %107, i64 %108
  call void @_blend_Lab_rescale(ptr noundef %106, ptr noundef %109)
  %110 = load float, ptr %18, align 4, !tbaa !45
  %111 = load ptr, ptr %10, align 8, !tbaa !11
  %112 = load i64, ptr %16, align 8, !tbaa !43
  %113 = add i64 %112, 3
  %114 = getelementptr inbounds nuw float, ptr %111, i64 %113
  store float %110, ptr %114, align 4, !tbaa !45
  call void @llvm.lifetime.end.p0(i64 4, ptr %21) #8
  call void @llvm.lifetime.end.p0(i64 16, ptr %20) #8
  call void @llvm.lifetime.end.p0(i64 16, ptr %19) #8
  call void @llvm.lifetime.end.p0(i64 4, ptr %18) #8
  br label %115

115:                                              ; preds = %105
  %116 = load i64, ptr %15, align 8, !tbaa !43
  %117 = add i64 %116, 1
  store i64 %117, ptr %15, align 8, !tbaa !43
  %118 = load i64, ptr %16, align 8, !tbaa !43
  %119 = add i64 %118, 4
  store i64 %119, ptr %16, align 8, !tbaa !43
  br label %26

120:                                              ; preds = %30
  ret void
}