; Function Attrs: nofree norecurse nosync nounwind memory(argmem: readwrite) uwtable
define internal void @_blend_difference(ptr noundef readonly captures(none) %0, ptr noundef readonly captures(none) %1, ptr noundef writeonly captures(none) %2, ptr noalias noundef readonly captures(none) %3, i64 noundef %4, ptr noundef readonly captures(none) %5, ptr noundef readonly captures(none) %6) unnamed_addr #11 {
  %8 = alloca [4 x float], align 16
  %9 = alloca [4 x float], align 16
  %.not = icmp eq i64 %4, 0
  br i1 %.not, label %._crit_edge, label %.lr.ph

._crit_edge:                                      ; preds = %_blend_Lab_rescale.exit, %7
  ret void

.lr.ph:                                           ; preds = %7, %_blend_Lab_rescale.exit
  %.046 = phi i64 [ %42, %_blend_Lab_rescale.exit ], [ 0, %7 ]
  %.03745 = phi i64 [ %43, %_blend_Lab_rescale.exit ], [ 0, %7 ]
  %10 = getelementptr inbounds nuw float, ptr %3, i64 %.046
  %11 = load float, ptr %10, align 4, !tbaa !36
  call void @llvm.lifetime.start.p0(i64 16, ptr nonnull %8) #8
  call void @llvm.lifetime.start.p0(i64 16, ptr nonnull %9) #8
  %12 = getelementptr inbounds nuw float, ptr %0, i64 %.03745
  br label %13

13:                                               ; preds = %13, %.lr.ph
  %.06.i = phi i64 [ 0, %.lr.ph ], [ %20, %13 ]
  %14 = getelementptr inbounds nuw float, ptr %12, i64 %.06.i
  %15 = load float, ptr %14, align 4, !tbaa !36
  %16 = getelementptr inbounds nuw [4 x float], ptr @__const._blend_Lab_scale.scale, i64 0, i64 %.06.i
  %17 = load float, ptr %16, align 4, !tbaa !36
  %18 = fmul reassoc nsz arcp contract afn float %17, %15
  %19 = getelementptr inbounds nuw float, ptr %8, i64 %.06.i
  store float %18, ptr %19, align 4, !tbaa !36
  %20 = add nuw nsw i64 %.06.i, 1
  %exitcond.not.i = icmp eq i64 %20, 4
  br i1 %exitcond.not.i, label %_blend_Lab_scale.exit, label %13

_blend_Lab_scale.exit:                            ; preds = %13
  %21 = getelementptr inbounds nuw float, ptr %1, i64 %.03745
  br label %22

22:                                               ; preds = %22, %_blend_Lab_scale.exit
  %.06.i39 = phi i64 [ 0, %_blend_Lab_scale.exit ], [ %29, %22 ]
  %23 = getelementptr inbounds nuw float, ptr %21, i64 %.06.i39
  %24 = load float, ptr %23, align 4, !tbaa !36
  %25 = getelementptr inbounds nuw [4 x float], ptr @__const._blend_Lab_scale.scale, i64 0, i64 %.06.i39
  %26 = load float, ptr %25, align 4, !tbaa !36
  %27 = fmul reassoc nsz arcp contract afn float %26, %24
  %28 = getelementptr inbounds nuw float, ptr %9, i64 %.06.i39
  store float %27, ptr %28, align 4, !tbaa !36
  %29 = add nuw nsw i64 %.06.i39, 1
  %exitcond.not.i40 = icmp eq i64 %29, 4
  br i1 %exitcond.not.i40, label %_blend_Lab_scale.exit41, label %22

30:                                               ; preds = %_blend_Lab_scale.exit41
  %31 = getelementptr inbounds nuw float, ptr %2, i64 %.03745
  br label %32

32:                                               ; preds = %32, %30
  %.06.i42 = phi i64 [ 0, %30 ], [ %39, %32 ]
  %33 = getelementptr inbounds nuw float, ptr %9, i64 %.06.i42
  %34 = load float, ptr %33, align 4, !tbaa !36
  %35 = getelementptr inbounds nuw [4 x float], ptr @__const._blend_Lab_rescale.scale, i64 0, i64 %.06.i42
  %36 = load float, ptr %35, align 4, !tbaa !36
  %37 = fmul reassoc nsz arcp contract afn float %36, %34
  %38 = getelementptr inbounds nuw float, ptr %31, i64 %.06.i42
  store float %37, ptr %38, align 4, !tbaa !36
  %39 = add nuw nsw i64 %.06.i42, 1
  %exitcond.not.i43 = icmp eq i64 %39, 4
  br i1 %exitcond.not.i43, label %_blend_Lab_rescale.exit, label %32

_blend_Lab_rescale.exit:                          ; preds = %32
  %40 = or disjoint i64 %.03745, 3
  %41 = getelementptr inbounds nuw float, ptr %2, i64 %40
  store float %11, ptr %41, align 4, !tbaa !36
  call void @llvm.lifetime.end.p0(i64 16, ptr nonnull %9) #8
  call void @llvm.lifetime.end.p0(i64 16, ptr nonnull %8) #8
  %42 = add nuw i64 %.046, 1
  %43 = add i64 %.03745, 4
  %exitcond47.not = icmp eq i64 %42, %4
  br i1 %exitcond47.not, label %._crit_edge, label %.lr.ph

_blend_Lab_scale.exit41:                          ; preds = %22, %_blend_Lab_scale.exit41
  %.03844 = phi i64 [ %68, %_blend_Lab_scale.exit41 ], [ 0, %22 ]
  %44 = getelementptr inbounds nuw float, ptr %6, i64 %.03844
  %45 = load float, ptr %44, align 4, !tbaa !36
  %46 = getelementptr inbounds nuw float, ptr %5, i64 %.03844
  %47 = load float, ptr %46, align 4, !tbaa !36
  %48 = tail call reassoc nsz arcp contract afn float @llvm.fabs.f32(float %47)
  %49 = fadd reassoc nsz arcp contract afn float %48, %45
  %50 = getelementptr inbounds nuw [4 x float], ptr %8, i64 0, i64 %.03844
  %51 = load float, ptr %50, align 4, !tbaa !36
  %52 = fadd reassoc nsz arcp contract afn float %51, %48
  %53 = tail call reassoc nsz arcp contract afn float @llvm.maxnum.f32(float %52, float 0.000000e+00)
  %54 = tail call reassoc nsz arcp contract afn noundef float @llvm.minnum.f32(float %53, float %49)
  %55 = getelementptr inbounds nuw [4 x float], ptr %9, i64 0, i64 %.03844
  %56 = load float, ptr %55, align 4, !tbaa !36
  %57 = fadd reassoc nsz arcp contract afn float %56, %48
  %58 = tail call reassoc nsz arcp contract afn float @llvm.maxnum.f32(float %57, float 0.000000e+00)
  %59 = tail call reassoc nsz arcp contract afn noundef float @llvm.minnum.f32(float %58, float %49)
  %60 = fsub reassoc nsz arcp contract afn float %54, %59
  %61 = tail call reassoc nsz arcp contract afn float @llvm.fabs.f32(float %60)
  %62 = fsub reassoc nsz arcp contract afn float %61, %54
  %63 = fmul reassoc nsz arcp contract afn float %62, %11
  %64 = fadd reassoc nsz arcp contract afn float %63, %54
  %65 = tail call reassoc nsz arcp contract afn float @llvm.maxnum.f32(float %64, float 0.000000e+00)
  %66 = tail call reassoc nsz arcp contract afn noundef float @llvm.minnum.f32(float %65, float %49)
  %67 = fsub reassoc nsz arcp contract afn float %66, %48
  store float %67, ptr %55, align 4, !tbaa !36
  %68 = add nuw nsw i64 %.03844, 1
  %exitcond.not = icmp eq i64 %68, 3
  br i1 %exitcond.not, label %30, label %_blend_Lab_scale.exit41
}